; Function Attrs: mustprogress uwtable
define internal void @_ZN4LuauL8fnVisitVIZNS_12_GLOBAL__N_110TypeCloner13cloneChildrenEPKNS_11TypePackVarEEUlOT_E_NS_8TypePackEEEvRS6_PNSt11conditionalIXsr3stdE10is_const_vIT0_EEKvvE4typeE(ptr noundef nonnull readonly align 8 captures(none) dereferenceable(8) %0, ptr noundef captures(none) %1) #2 personality ptr @__gxx_personality_v0 {
  %.val = load ptr, ptr %0, align 8, !tbaa !338
  %3 = load ptr, ptr %1, align 8, !tbaa !209
  %4 = getelementptr inbounds nuw i8, ptr %1, i64 8
  %5 = load ptr, ptr %4, align 8, !tbaa !209
  %.not13.i.i = icmp eq ptr %3, %5
  br i1 %.not13.i.i, label %._crit_edge.i.i, label %.lr.ph.i.i

._crit_edge.i.i:                                  ; preds = %.lr.ph.i.i, %2
  %6 = getelementptr inbounds nuw i8, ptr %1, i64 32
  %7 = load i8, ptr %6, align 8, !tbaa !187, !range !14, !noundef !15
  %8 = trunc nuw i8 %7 to i1
  br i1 %8, label %12, label %_ZZN4Luau12_GLOBAL__N_110TypeCloner13cloneChildrenEPKNS_11TypePackVarEENKUlOT_E_clIRNS_8TypePackEEEDaS6_.exit

.lr.ph.i.i:                                       ; preds = %2, %.lr.ph.i.i
  %.sroa.010.014.i.i = phi ptr [ %11, %.lr.ph.i.i ], [ %3, %2 ]
  %9 = load ptr, ptr %.sroa.010.014.i.i, align 8, !tbaa !85
  %10 = tail call fastcc noundef ptr @_ZN4Luau12_GLOBAL__N_110TypeCloner12shallowCloneEPKNS_4TypeE(ptr noundef nonnull align 8 dereferenceable(76) %.val, ptr noundef %9)
  store ptr %10, ptr %.sroa.010.014.i.i, align 8, !tbaa !85
  %11 = getelementptr inbounds nuw i8, ptr %.sroa.010.014.i.i, i64 8
  %.not.i.i = icmp eq ptr %11, %5
  br i1 %.not.i.i, label %._crit_edge.i.i, label %.lr.ph.i.i

12:                                               ; preds = %._crit_edge.i.i
  %13 = getelementptr inbounds nuw i8, ptr %1, i64 24
  %14 = load ptr, ptr %13, align 8, !tbaa !57
  %15 = tail call fastcc noundef ptr @_ZN4Luau12_GLOBAL__N_110TypeCloner12shallowCloneEPKNS_11TypePackVarE(ptr noundef nonnull align 8 dereferenceable(76) %.val, ptr noundef %14)
  store ptr %15, ptr %13, align 8
  store i8 1, ptr %6, align 8
  br label %_ZZN4Luau12_GLOBAL__N_110TypeCloner13cloneChildrenEPKNS_11TypePackVarEENKUlOT_E_clIRNS_8TypePackEEEDaS6_.exit

_ZZN4Luau12_GLOBAL__N_110TypeCloner13cloneChildrenEPKNS_11TypePackVarEENKUlOT_E_clIRNS_8TypePackEEEDaS6_.exit: ; preds = %._crit_edge.i.i, %12
  ret void
}